ARM GAS  C:\Users\santa\AppData\Local\Temp\ccFlfmj2.s 			page 1


   1              		.syntax unified
   2              		.cpu cortex-m3
   3              		.fpu softvfp
   4              		.eabi_attribute 20, 1
   5              		.eabi_attribute 21, 1
   6              		.eabi_attribute 23, 3
   7              		.eabi_attribute 24, 1
   8              		.eabi_attribute 25, 1
   9              		.eabi_attribute 26, 1
  10              		.eabi_attribute 30, 1
  11              		.eabi_attribute 34, 1
  12              		.eabi_attribute 18, 4
  13              		.thumb
  14              		.syntax unified
  15              		.file	"main.c"
  16              		.text
  17              	.Ltext0:
  18              		.cfi_sections	.debug_frame
  19              		.section	.text.Arreglo,"ax",%progbits
  20              		.align	2
  21              		.global	Arreglo
  22              		.thumb
  23              		.thumb_func
  24              		.type	Arreglo, %function
  25              	Arreglo:
  26              	.LFB63:
  27              		.file 1 "main.c"
   1:main.c        **** /* ========================================
   2:main.c        ****  *
   3:main.c        ****  * Copyright YOUR COMPANY, THE YEAR
   4:main.c        ****  * All Rights Reserved
   5:main.c        ****  * UNPUBLISHED, LICENSED SOFTWARE.
   6:main.c        ****  *
   7:main.c        ****  * CONFIDENTIAL AND PROPRIETARY INFORMATION
   8:main.c        ****  * WHICH IS THE PROPERTY OF your company.
   9:main.c        ****  *
  10:main.c        ****  * ==================== ====================
  11:main.c        **** */
  12:main.c        **** #include "project.h"
  13:main.c        **** volatile uint32 data,data_ref,distance=0;
  14:main.c        **** volatile uint16 data_Average[10];
  15:main.c        **** volatile uint16 resultado=0;
  16:main.c        **** volatile uint8 index1;
  17:main.c        **** //instance array
  18:main.c        **** void Arreglo(){
  28              		.loc 1 18 0
  29              		.cfi_startproc
  30              		@ args = 0, pretend = 0, frame = 0
  31              		@ frame_needed = 0, uses_anonymous_args = 0
  32              		@ link register save eliminated.
  19:main.c        **** if(index1<10){
  33              		.loc 1 19 0
  34 0000 0B4B     		ldr	r3, .L4
  35 0002 1B78     		ldrb	r3, [r3]	@ zero_extendqisi2
  36 0004 DBB2     		uxtb	r3, r3
  37 0006 092B     		cmp	r3, #9
  38 0008 0DD8     		bhi	.L2
ARM GAS  C:\Users\santa\AppData\Local\Temp\ccFlfmj2.s 			page 2


  20:main.c        ****     data_Average[index1]=data;
  39              		.loc 1 20 0
  40 000a 094A     		ldr	r2, .L4
  41 000c 1378     		ldrb	r3, [r2]	@ zero_extendqisi2
  42 000e DBB2     		uxtb	r3, r3
  43 0010 0849     		ldr	r1, .L4+4
  44 0012 0968     		ldr	r1, [r1]
  45 0014 89B2     		uxth	r1, r1
  46 0016 0848     		ldr	r0, .L4+8
  47 0018 20F81310 		strh	r1, [r0, r3, lsl #1]	@ movhi
  21:main.c        ****     index1++;
  48              		.loc 1 21 0
  49 001c 1378     		ldrb	r3, [r2]	@ zero_extendqisi2
  50 001e 0133     		adds	r3, r3, #1
  51 0020 DBB2     		uxtb	r3, r3
  52 0022 1370     		strb	r3, [r2]
  53 0024 7047     		bx	lr
  54              	.L2:
  22:main.c        ****  
  23:main.c        **** }else{
  24:main.c        ****    index1=0;
  55              		.loc 1 24 0
  56 0026 0022     		movs	r2, #0
  57 0028 014B     		ldr	r3, .L4
  58 002a 1A70     		strb	r2, [r3]
  59 002c 7047     		bx	lr
  60              	.L5:
  61 002e 00BF     		.align	2
  62              	.L4:
  63 0030 00000000 		.word	index1
  64 0034 00000000 		.word	data
  65 0038 00000000 		.word	data_Average
  66              		.cfi_endproc
  67              	.LFE63:
  68              		.size	Arreglo, .-Arreglo
  69              		.global	__aeabi_i2f
  70              		.global	__aeabi_f2iz
  71              		.section	.text.Get_Medida,"ax",%progbits
  72              		.align	2
  73              		.global	Get_Medida
  74              		.thumb
  75              		.thumb_func
  76              		.type	Get_Medida, %function
  77              	Get_Medida:
  78              	.LFB64:
  25:main.c        ****   }
  26:main.c        **** }
  27:main.c        **** //resultado_rela_medicion
  28:main.c        **** void Get_Medida(void){
  79              		.loc 1 28 0
  80              		.cfi_startproc
  81              		@ args = 0, pretend = 0, frame = 0
  82              		@ frame_needed = 0, uses_anonymous_args = 0
  83 0000 08B5     		push	{r3, lr}
  84              		.cfi_def_cfa_offset 8
  85              		.cfi_offset 3, -8
  86              		.cfi_offset 14, -4
ARM GAS  C:\Users\santa\AppData\Local\Temp\ccFlfmj2.s 			page 3


  87              	.LVL0:
  88              	.LBB2:
  29:main.c        ****  uint16 temp=0;
  30:main.c        ****    for(int i=0;i<10;i++){
  89              		.loc 1 30 0
  90 0002 0022     		movs	r2, #0
  91              	.LBE2:
  29:main.c        ****  uint16 temp=0;
  92              		.loc 1 29 0
  93 0004 1346     		mov	r3, r2
  94              	.LBB3:
  95              		.loc 1 30 0
  96 0006 06E0     		b	.L7
  97              	.LVL1:
  98              	.L8:
  31:main.c        ****      temp=temp+data_Average[i];
  99              		.loc 1 31 0 discriminator 3
 100 0008 0A49     		ldr	r1, .L10
 101 000a 31F81200 		ldrh	r0, [r1, r2, lsl #1]
 102 000e 80B2     		uxth	r0, r0
 103 0010 0344     		add	r3, r3, r0
 104              	.LVL2:
 105 0012 9BB2     		uxth	r3, r3
 106              	.LVL3:
  30:main.c        ****      temp=temp+data_Average[i];
 107              		.loc 1 30 0 discriminator 3
 108 0014 0132     		adds	r2, r2, #1
 109              	.LVL4:
 110              	.L7:
  30:main.c        ****      temp=temp+data_Average[i];
 111              		.loc 1 30 0 is_stmt 0 discriminator 1
 112 0016 092A     		cmp	r2, #9
 113 0018 F6DD     		ble	.L8
 114              	.LBE3:
  32:main.c        ****    }
  33:main.c        ****  float value=temp/10;
 115              		.loc 1 33 0 is_stmt 1
 116 001a 0748     		ldr	r0, .L10+4
 117 001c A0FB0330 		umull	r3, r0, r0, r3
 118              	.LVL5:
 119 0020 C0F3CF00 		ubfx	r0, r0, #3, #16
 120 0024 FFF7FEFF 		bl	__aeabi_i2f
 121              	.LVL6:
  34:main.c        ****  resultado=(int)(value);
 122              		.loc 1 34 0
 123 0028 FFF7FEFF 		bl	__aeabi_f2iz
 124              	.LVL7:
 125 002c 80B2     		uxth	r0, r0
 126 002e 034B     		ldr	r3, .L10+8
 127 0030 1880     		strh	r0, [r3]	@ movhi
 128 0032 08BD     		pop	{r3, pc}
 129              	.L11:
 130              		.align	2
 131              	.L10:
 132 0034 00000000 		.word	data_Average
 133 0038 CDCCCCCC 		.word	-858993459
 134 003c 00000000 		.word	.LANCHOR0
ARM GAS  C:\Users\santa\AppData\Local\Temp\ccFlfmj2.s 			page 4


 135              		.cfi_endproc
 136              	.LFE64:
 137              		.size	Get_Medida, .-Get_Medida
 138              		.section	.text.main,"ax",%progbits
 139              		.align	2
 140              		.global	main
 141              		.thumb
 142              		.thumb_func
 143              		.type	main, %function
 144              	main:
 145              	.LFB65:
  35:main.c        **** }
  36:main.c        **** int main(void)
  37:main.c        **** {
 146              		.loc 1 37 0
 147              		.cfi_startproc
 148              		@ Volatile: function does not return.
 149              		@ args = 0, pretend = 0, frame = 0
 150              		@ frame_needed = 0, uses_anonymous_args = 0
 151 0000 08B5     		push	{r3, lr}
 152              		.cfi_def_cfa_offset 8
 153              		.cfi_offset 3, -8
 154              		.cfi_offset 14, -4
  38:main.c        ****     CyGlobalIntEnable; /* Enable global interrupts. */
 155              		.loc 1 38 0
 156              		.syntax unified
 157              	@ 38 "main.c" 1
 158 0002 62B6     		CPSIE   i
 159              	@ 0 "" 2
  39:main.c        **** 
  40:main.c        ****     /* Place your initialization/startup code here (e.g. MyInst_Start()) */
  41:main.c        ****     LCD_Start();
 160              		.loc 1 41 0
 161              		.thumb
 162              		.syntax unified
 163 0004 FFF7FEFF 		bl	LCD_Start
 164              	.LVL8:
  42:main.c        ****     LCD_Position(0,1);
 165              		.loc 1 42 0
 166 0008 0121     		movs	r1, #1
 167 000a 0020     		movs	r0, #0
 168 000c FFF7FEFF 		bl	LCD_Position
 169              	.LVL9:
  43:main.c        ****     LCD_PrintString("V[V]");
 170              		.loc 1 43 0
 171 0010 1048     		ldr	r0, .L15
 172 0012 FFF7FEFF 		bl	LCD_PrintString
 173              	.LVL10:
  44:main.c        ****     ADC1_Start();
 174              		.loc 1 44 0
 175 0016 FFF7FEFF 		bl	ADC1_Start
 176              	.LVL11:
 177              	.L13:
  45:main.c        ****     
  46:main.c        ****  //   PGA1_Start();
  47:main.c        ****     //ADC2_Start();
  48:main.c        ****     for(;;)
ARM GAS  C:\Users\santa\AppData\Local\Temp\ccFlfmj2.s 			page 5


  49:main.c        ****     {
  50:main.c        ****         
  51:main.c        ****      //  PGA_1_ 
  52:main.c        ****        ADC1_StartConvert();
 178              		.loc 1 52 0 discriminator 1
 179 001a FFF7FEFF 		bl	ADC1_StartConvert
 180              	.LVL12:
  53:main.c        ****        ADC1_IsEndConversion(ADC1_WAIT_FOR_RESULT);
 181              		.loc 1 53 0 discriminator 1
 182 001e 0020     		movs	r0, #0
 183 0020 FFF7FEFF 		bl	ADC1_IsEndConversion
 184              	.LVL13:
  54:main.c        ****        data=ADC1_GetResult32();
 185              		.loc 1 54 0 discriminator 1
 186 0024 FFF7FEFF 		bl	ADC1_GetResult32
 187              	.LVL14:
 188 0028 0B4C     		ldr	r4, .L15+4
 189 002a 2060     		str	r0, [r4]
  55:main.c        ****        data=ADC1_CountsTo_mVolts(data);
 190              		.loc 1 55 0 discriminator 1
 191 002c 2068     		ldr	r0, [r4]
 192 002e FFF7FEFF 		bl	ADC1_CountsTo_mVolts
 193              	.LVL15:
 194 0032 2060     		str	r0, [r4]
  56:main.c        ****       
  57:main.c        ****        Arreglo();
 195              		.loc 1 57 0 discriminator 1
 196 0034 FFF7FEFF 		bl	Arreglo
 197              	.LVL16:
  58:main.c        ****       //  if(data>1000){
  59:main.c        ****          LCD_Position(1,2);
 198              		.loc 1 59 0 discriminator 1
 199 0038 0221     		movs	r1, #2
 200 003a 0120     		movs	r0, #1
 201 003c FFF7FEFF 		bl	LCD_Position
 202              	.LVL17:
  60:main.c        ****          LCD_PrintDecUint16(distance);
 203              		.loc 1 60 0 discriminator 1
 204 0040 064B     		ldr	r3, .L15+8
 205 0042 5868     		ldr	r0, [r3, #4]
 206 0044 80B2     		uxth	r0, r0
 207 0046 FFF7FEFF 		bl	LCD_PrintU32Number
 208              	.LVL18:
  61:main.c        ****         //}  
  62:main.c        ****       //float Number=;
  63:main.c        ****       // LCD_Position(1,2);
  64:main.c        ****      
  65:main.c        ****      CyDelay(500);
 209              		.loc 1 65 0 discriminator 1
 210 004a 4FF4FA70 		mov	r0, #500
 211 004e FFF7FEFF 		bl	CyDelay
 212              	.LVL19:
 213 0052 E2E7     		b	.L13
 214              	.L16:
 215              		.align	2
 216              	.L15:
 217 0054 00000000 		.word	.LC0
ARM GAS  C:\Users\santa\AppData\Local\Temp\ccFlfmj2.s 			page 6


 218 0058 00000000 		.word	data
 219 005c 00000000 		.word	.LANCHOR0
 220              		.cfi_endproc
 221              	.LFE65:
 222              		.size	main, .-main
 223              		.comm	index1,1,1
 224              		.global	resultado
 225              		.comm	data_Average,20,4
 226              		.global	distance
 227              		.comm	data_ref,4,4
 228              		.comm	data,4,4
 229              		.section	.rodata.str1.4,"aMS",%progbits,1
 230              		.align	2
 231              	.LC0:
 232 0000 565B565D 		.ascii	"V[V]\000"
 232      00
 233              		.bss
 234              		.align	2
 235              		.set	.LANCHOR0,. + 0
 236              		.type	resultado, %object
 237              		.size	resultado, 2
 238              	resultado:
 239 0000 0000     		.space	2
 240 0002 0000     		.space	2
 241              		.type	distance, %object
 242              		.size	distance, 4
 243              	distance:
 244 0004 00000000 		.space	4
 245              		.text
 246              	.Letext0:
 247              		.file 2 "c:\\program files (x86)\\cypress\\psoc creator\\4.2\\psoc creator\\import\\gnu\\arm\\5.4.
 248              		.file 3 "c:\\program files (x86)\\cypress\\psoc creator\\4.2\\psoc creator\\import\\gnu\\arm\\5.4.
 249              		.file 4 "Generated_Source\\PSoC5/cytypes.h"
 250              		.file 5 "Generated_Source\\PSoC5/core_cm3.h"
 251              		.file 6 "Generated_Source\\PSoC5/LCD.h"
 252              		.file 7 "Generated_Source\\PSoC5/ADC1.h"
 253              		.file 8 "Generated_Source\\PSoC5/CyLib.h"